target datalayout = "e-m:e-p270:32:32-p271:32:32-p272:64:64-i64:64-i128:128-f80:128-n8:16:32:64-S128"
target triple = "x86_64-unknown-linux-gnu"

%struct.UHCIState = type { %struct.PCIDevice, %struct.MemoryRegion, %struct.USBBus, i16, i16, i16, i16, i32, i8, i8, i64, ptr, ptr, i32, i32, i8, [2 x %struct.UHCIPort], ptr, i32, %union.anon.8, i8, ptr, i32, i32 }
%struct.PCIDevice = type { %struct.DeviceState, i8, i8, ptr, ptr, ptr, ptr, ptr, i32, %struct.PCIReqIDCache, [64 x i8], [7 x %struct.PCIIORegion], %struct.AddressSpace, %struct.MemoryRegion, %struct.MemoryRegion, ptr, ptr, [3 x ptr], i8, i8, i32, i8, i32, ptr, ptr, ptr, ptr, ptr, ptr, %struct.MemoryRegion, %struct.MemoryRegion, %struct.MemoryRegion, ptr, i8, i32, i8, %struct.PCIExpressDevice, ptr, ptr, i32, i8, %struct.MemoryRegion, i32, ptr, ptr, ptr, ptr, ptr, i32 }
%struct.DeviceState = type { %struct.Object, ptr, ptr, i8, i8, i64, ptr, i32, i8, ptr, %struct.NamedGPIOListHead, %struct.NamedClockListHead, %struct.BusStateHead, i32, i32, i32, %struct.ResettableState, ptr, %struct.MemReentrancyGuard }
%struct.Object = type { ptr, ptr, ptr, i32, ptr }
%struct.NamedGPIOListHead = type { ptr }
%struct.NamedClockListHead = type { ptr }
%struct.BusStateHead = type { ptr }
%struct.ResettableState = type { i32, i8, i8 }
%struct.MemReentrancyGuard = type { i8 }
%struct.PCIReqIDCache = type { ptr, i32 }
%struct.PCIIORegion = type { i64, i64, i8, ptr, ptr }
%struct.AddressSpace = type { %struct.rcu_head, ptr, ptr, ptr, i32, i32, ptr, %union.anon, %union.anon.0 }
%struct.rcu_head = type { ptr, ptr }
%union.anon = type { %struct.QTailQLink }
%struct.QTailQLink = type { ptr, ptr }
%union.anon.0 = type { %struct.QTailQLink }
%struct.PCIExpressDevice = type { i8, i8, i8, i16, %struct.PCIEAERLog, i16, i16, i16, %struct.PCIESriovPF, %struct.PCIESriovVF }
%struct.PCIEAERLog = type { i16, i16, ptr }
%struct.PCIESriovPF = type { i16, [7 x i8], ptr, ptr }
%struct.PCIESriovVF = type { ptr, i16 }
%struct.MemoryRegion = type { %struct.Object, i8, i8, i8, i8, i8, i8, i8, i8, i8, i8, ptr, ptr, ptr, ptr, ptr, ptr, i32, i128, i64, ptr, i64, i8, i8, i8, i8, i8, ptr, i64, i32, %union.anon.1, %union.anon.2, %union.anon.3, ptr, i32, ptr, ptr, i8 }
%union.anon.1 = type { %struct.QTailQLink }
%union.anon.2 = type { %struct.QTailQLink }
%union.anon.3 = type { %struct.QTailQLink }
%struct.USBBus = type { %struct.BusState, ptr, i32, i32, i32, %union.anon.4, %union.anon.5, %union.anon.6 }
%struct.BusState = type { %struct.Object, ptr, ptr, ptr, i32, i8, i8, i32, %union.BusChildHead, %struct.BusStateEntry, %struct.ResettableState }
%union.BusChildHead = type { %struct.QTailQLink }
%struct.BusStateEntry = type { ptr, ptr }
%union.anon.4 = type { %struct.QTailQLink }
%union.anon.5 = type { %struct.QTailQLink }
%union.anon.6 = type { %struct.QTailQLink }
%struct.UHCIPort = type { %struct.USBPort, i16 }
%struct.USBPort = type { ptr, i32, i32, [16 x i8], ptr, ptr, i32, %union.anon.7 }
%union.anon.7 = type { %struct.QTailQLink }
%union.anon.8 = type { %struct.QTailQLink }
%struct.UHCIQueue = type { i32, i32, ptr, ptr, %union.anon.13, %union.anon.14, i8 }
%union.anon.13 = type { %struct.QTailQLink }
%union.anon.14 = type { %struct.QTailQLink }
%struct.timeval = type { i64, i64 }

@.str.2 = private unnamed_addr constant [13 x i8] c"pci-uhci-usb\00", align 1
@.str.3 = private unnamed_addr constant [26 x i8] c"../qemu/hw/usb/hcd-uhci.h\00", align 1
@__func__.UHCI = private unnamed_addr constant [5 x i8] c"UHCI\00", align 1
@trace_events_enabled_count = external global i32, align 4
@message_with_timestamp = external global i8, align 1
@qemu_loglevel = external global i32, align 4
@.str.59 = private unnamed_addr constant [11 x i8] c"cancel-all\00", align 1
@_TRACE_USB_UHCI_EXIT_DSTATE = external global i16, align 2
@.str.73 = private unnamed_addr constant [41 x i8] c"%d@%zu.%06zu:usb_uhci_exit === EXIT ===\0A\00", align 1
@.str.74 = private unnamed_addr constant [28 x i8] c"usb_uhci_exit === EXIT ===\0A\00", align 1

; Function Attrs: nounwind sspstrong uwtable
define internal zeroext i1 @qemu_loglevel_mask(i32 noundef %mask) #0 {
entry:
  %mask.addr = alloca i32, align 4
  store i32 %mask, ptr %mask.addr, align 4
  %0 = load i32, ptr @qemu_loglevel, align 4
  %1 = load i32, ptr %mask.addr, align 4
  %and = and i32 %0, %1
  %cmp = icmp ne i32 %and, 0
  ret i1 %cmp
}

; Function Attrs: nounwind sspstrong uwtable
define internal void @_nocheck__trace_usb_uhci_exit() #0 {
entry:
  %_now = alloca %struct.timeval, align 8
  %0 = load i32, ptr @trace_events_enabled_count, align 4
  %tobool = icmp ne i32 %0, 0
  %lnot = xor i1 %tobool, true
  %lnot1 = xor i1 %lnot, true
  %lnot.ext = zext i1 %lnot1 to i32
  %conv = sext i32 %lnot.ext to i64
  %tobool2 = icmp ne i64 %conv, 0
  br i1 %tobool2, label %land.lhs.true, label %if.end11

land.lhs.true:                                    ; preds = %entry
  %1 = load i16, ptr @_TRACE_USB_UHCI_EXIT_DSTATE, align 2
  %conv3 = zext i16 %1 to i32
  %tobool4 = icmp ne i32 %conv3, 0
  br i1 %tobool4, label %land.lhs.true5, label %if.end11

land.lhs.true5:                                   ; preds = %land.lhs.true
  %call = call zeroext i1 @qemu_loglevel_mask(i32 noundef 32768)
  br i1 %call, label %if.then, label %if.end11

if.then:                                          ; preds = %land.lhs.true5
  %2 = load i8, ptr @message_with_timestamp, align 1
  %tobool7 = trunc i8 %2 to i1
  br i1 %tobool7, label %if.then8, label %if.else

if.then8:                                         ; preds = %if.then
  %call9 = call i32 @gettimeofday(ptr noundef %_now, ptr noundef null) #7
  %call10 = call i32 @qemu_get_thread_id()
  %tv_sec = getelementptr inbounds %struct.timeval, ptr %_now, i32 0, i32 0
  %3 = load i64, ptr %tv_sec, align 8
  %tv_usec = getelementptr inbounds %struct.timeval, ptr %_now, i32 0, i32 1
  %4 = load i64, ptr %tv_usec, align 8
  call void (ptr, ...) @qemu_log(ptr noundef @.str.73, i32 noundef %call10, i64 noundef %3, i64 noundef %4)
  br label %if.end

if.else:                                          ; preds = %if.then
  call void (ptr, ...) @qemu_log(ptr noundef @.str.74)
  br label %if.end

if.end:                                           ; preds = %if.else, %if.then8
  br label %if.end11

if.end11:                                         ; preds = %if.end, %land.lhs.true5, %land.lhs.true, %entry
  ret void
}

; Function Attrs: nounwind sspstrong uwtable
define internal void @uhci_async_cancel_all(ptr noundef %s) #0 {
entry:
  %s.addr = alloca ptr, align 8
  %queue = alloca ptr, align 8
  %nq = alloca ptr, align 8
  store ptr %s, ptr %s.addr, align 8
  %0 = load ptr, ptr %s.addr, align 8
  %queues = getelementptr inbounds %struct.UHCIState, ptr %0, i32 0, i32 19
  %1 = load ptr, ptr %queues, align 8
  store ptr %1, ptr %queue, align 8
  br label %for.cond

for.cond:                                         ; preds = %for.inc, %entry
  %2 = load ptr, ptr %queue, align 8
  %tobool = icmp ne ptr %2, null
  br i1 %tobool, label %land.rhs, label %land.end

land.rhs:                                         ; preds = %for.cond
  %3 = load ptr, ptr %queue, align 8
  %next = getelementptr inbounds %struct.UHCIQueue, ptr %3, i32 0, i32 4
  %4 = load ptr, ptr %next, align 8
  store ptr %4, ptr %nq, align 8
  br label %land.end

land.end:                                         ; preds = %land.rhs, %for.cond
  %5 = phi i1 [ false, %for.cond ], [ true, %land.rhs ]
  br i1 %5, label %for.body, label %for.end

for.body:                                         ; preds = %land.end
  %6 = load ptr, ptr %queue, align 8
  call void @uhci_queue_free(ptr noundef %6, ptr noundef @.str.59)
  br label %for.inc

for.inc:                                          ; preds = %for.body
  %7 = load ptr, ptr %nq, align 8
  store ptr %7, ptr %queue, align 8
  br label %for.cond, !llvm.loop !20

for.end:                                          ; preds = %land.end
  ret void
}

; Function Attrs: nounwind sspstrong uwtable
define internal void @timer_free(ptr noundef %ts) #0 {
entry:
  %ts.addr = alloca ptr, align 8
  store ptr %ts, ptr %ts.addr, align 8
  %0 = load ptr, ptr %ts.addr, align 8
  %tobool = icmp ne ptr %0, null
  br i1 %tobool, label %if.then, label %if.end

if.then:                                          ; preds = %entry
  %1 = load ptr, ptr %ts.addr, align 8
  call void @timer_del(ptr noundef %1)
  %2 = load ptr, ptr %ts.addr, align 8
  call void @g_free(ptr noundef %2)
  br label %if.end

if.end:                                           ; preds = %if.then, %entry
  ret void
}

; Function Attrs: nounwind sspstrong uwtable
define internal void @trace_usb_uhci_exit() #0 {
entry:
  call void @_nocheck__trace_usb_uhci_exit()
  ret void
}

; Function Attrs: nounwind sspstrong uwtable
define internal ptr @UHCI(ptr noundef %obj) #0 {
entry:
  %obj.addr = alloca ptr, align 8
  store ptr %obj, ptr %obj.addr, align 8
  %0 = load ptr, ptr %obj.addr, align 8
  %call = call ptr @object_dynamic_cast_assert(ptr noundef %0, ptr noundef @.str.2, ptr noundef @.str.3, i32 noundef 78, ptr noundef @__func__.UHCI)
  ret ptr %call
}

; Function Attrs: nounwind sspstrong uwtable
define internal void @usb_uhci_exit(ptr noundef %dev) #0 {
entry:
  %dev.addr = alloca ptr, align 8
  %s = alloca ptr, align 8
  store ptr %dev, ptr %dev.addr, align 8
  %0 = load ptr, ptr %dev.addr, align 8
  %call = call ptr @UHCI(ptr noundef %0)
  store ptr %call, ptr %s, align 8
  call void @trace_usb_uhci_exit()
  %1 = load ptr, ptr %s, align 8
  %frame_timer = getelementptr inbounds %struct.UHCIState, ptr %1, i32 0, i32 11
  %2 = load ptr, ptr %frame_timer, align 8
  %tobool = icmp ne ptr %2, null
  br i1 %tobool, label %if.then, label %if.end

if.then:                                          ; preds = %entry
  %3 = load ptr, ptr %s, align 8
  %frame_timer1 = getelementptr inbounds %struct.UHCIState, ptr %3, i32 0, i32 11
  %4 = load ptr, ptr %frame_timer1, align 8
  call void @timer_free(ptr noundef %4)
  %5 = load ptr, ptr %s, align 8
  %frame_timer2 = getelementptr inbounds %struct.UHCIState, ptr %5, i32 0, i32 11
  store ptr null, ptr %frame_timer2, align 8
  br label %if.end

if.end:                                           ; preds = %if.then, %entry
  %6 = load ptr, ptr %s, align 8
  %bh = getelementptr inbounds %struct.UHCIState, ptr %6, i32 0, i32 12
  %7 = load ptr, ptr %bh, align 16
  %tobool3 = icmp ne ptr %7, null
  br i1 %tobool3, label %if.then4, label %if.end6

if.then4:                                         ; preds = %if.end
  %8 = load ptr, ptr %s, align 8
  %bh5 = getelementptr inbounds %struct.UHCIState, ptr %8, i32 0, i32 12
  %9 = load ptr, ptr %bh5, align 16
  call void @qemu_bh_delete(ptr noundef %9)
  br label %if.end6

if.end6:                                          ; preds = %if.then4, %if.end
  %10 = load ptr, ptr %s, align 8
  call void @uhci_async_cancel_all(ptr noundef %10)
  %11 = load ptr, ptr %s, align 8
  %masterbus = getelementptr inbounds %struct.UHCIState, ptr %11, i32 0, i32 21
  %12 = load ptr, ptr %masterbus, align 16
  %tobool7 = icmp ne ptr %12, null
  br i1 %tobool7, label %if.end9, label %if.then8

if.then8:                                         ; preds = %if.end6
  %13 = load ptr, ptr %s, align 8
  %bus = getelementptr inbounds %struct.UHCIState, ptr %13, i32 0, i32 2
  call void @usb_bus_release(ptr noundef %bus)
  br label %if.end9

if.end9:                                          ; preds = %if.then8, %if.end6
  ret void
}