; Function Attrs: nounwind sspstrong uwtable
define internal void @usb_uhci_exit(ptr noundef %dev) #0 {
entry:
  %_now.i.i = alloca %struct.timeval, align 8
  %call.i = tail call ptr @object_dynamic_cast_assert(ptr noundef %dev, ptr noundef nonnull @.str.2, ptr noundef nonnull @.str.3, i32 noundef 78, ptr noundef nonnull @__func__.UHCI) #11
  call void @llvm.lifetime.start.p0(i64 16, ptr nonnull %_now.i.i)
  %0 = load i32, ptr @trace_events_enabled_count, align 4
  %tobool.i.i = icmp ne i32 %0, 0
  %1 = load i16, ptr @_TRACE_USB_UHCI_EXIT_DSTATE, align 2
  %tobool4.i.i = icmp ne i16 %1, 0
  %or.cond.i.i = select i1 %tobool.i.i, i1 %tobool4.i.i, i1 false
  br i1 %or.cond.i.i, label %land.lhs.true5.i.i, label %trace_usb_uhci_exit.exit

land.lhs.true5.i.i:                               ; preds = %entry
  %2 = load i32, ptr @qemu_loglevel, align 4
  %and.i.i.i = and i32 %2, 32768
  %cmp.i.not.i.i = icmp eq i32 %and.i.i.i, 0
  br i1 %cmp.i.not.i.i, label %trace_usb_uhci_exit.exit, label %if.then.i.i

if.then.i.i:                                      ; preds = %land.lhs.true5.i.i
  %3 = load i8, ptr @message_with_timestamp, align 1
  %tobool7.i.i = trunc i8 %3 to i1
  br i1 %tobool7.i.i, label %if.then8.i.i, label %if.else.i.i

if.then8.i.i:                                     ; preds = %if.then.i.i
  %call9.i.i = call i32 @gettimeofday(ptr noundef nonnull %_now.i.i, ptr noundef null) #11
  %call10.i.i = tail call i32 @qemu_get_thread_id() #11
  %4 = load i64, ptr %_now.i.i, align 8
  %tv_usec.i.i = getelementptr inbounds nuw i8, ptr %_now.i.i, i64 8
  %5 = load i64, ptr %tv_usec.i.i, align 8
  tail call void (ptr, ...) @qemu_log(ptr noundef nonnull @.str.73, i32 noundef %call10.i.i, i64 noundef %4, i64 noundef %5) #11
  br label %trace_usb_uhci_exit.exit

if.else.i.i:                                      ; preds = %if.then.i.i
  tail call void (ptr, ...) @qemu_log(ptr noundef nonnull @.str.74) #11
  br label %trace_usb_uhci_exit.exit

trace_usb_uhci_exit.exit:                         ; preds = %entry, %land.lhs.true5.i.i, %if.then8.i.i, %if.else.i.i
  call void @llvm.lifetime.end.p0(i64 16, ptr nonnull %_now.i.i)
  %frame_timer = getelementptr inbounds nuw i8, ptr %call.i, i64 3096
  %6 = load ptr, ptr %frame_timer, align 8
  %tobool.not = icmp eq ptr %6, null
  br i1 %tobool.not, label %if.end, label %if.then

if.then:                                          ; preds = %trace_usb_uhci_exit.exit
  tail call void @timer_del(ptr noundef nonnull %6) #11
  tail call void @g_free(ptr noundef nonnull %6) #11
  store ptr null, ptr %frame_timer, align 8
  br label %if.end

if.end:                                           ; preds = %if.then, %trace_usb_uhci_exit.exit
  %bh = getelementptr inbounds nuw i8, ptr %call.i, i64 3104
  %7 = load ptr, ptr %bh, align 16
  %tobool3.not = icmp eq ptr %7, null
  br i1 %tobool3.not, label %if.end6, label %if.then4

if.then4:                                         ; preds = %if.end
  tail call void @qemu_bh_delete(ptr noundef nonnull %7) #11
  br label %if.end6

if.end6:                                          ; preds = %if.then4, %if.end
  %8 = getelementptr i8, ptr %call.i, i64 3304
  %call.val = load ptr, ptr %8, align 8
  %tobool.not1.i = icmp eq ptr %call.val, null
  br i1 %tobool.not1.i, label %uhci_async_cancel_all.exit, label %land.rhs.i

land.rhs.i:                                       ; preds = %if.end6, %land.rhs.i
  %queue.02.i = phi ptr [ %9, %land.rhs.i ], [ %call.val, %if.end6 ]
  %next.i = getelementptr inbounds nuw i8, ptr %queue.02.i, i64 24
  %9 = load ptr, ptr %next.i, align 8
  tail call fastcc void @uhci_queue_free(ptr noundef nonnull %queue.02.i, ptr noundef nonnull @.str.59)
  %tobool.not.i = icmp eq ptr %9, null
  br i1 %tobool.not.i, label %uhci_async_cancel_all.exit, label %land.rhs.i, !llvm.loop !5

uhci_async_cancel_all.exit:                       ; preds = %land.rhs.i, %if.end6
  %masterbus = getelementptr inbounds nuw i8, ptr %call.i, i64 3328
  %10 = load ptr, ptr %masterbus, align 16
  %tobool7.not = icmp eq ptr %10, null
  br i1 %tobool7.not, label %if.then8, label %if.end9

if.then8:                                         ; preds = %uhci_async_cancel_all.exit
  %bus = getelementptr inbounds nuw i8, ptr %call.i, i64 2880
  tail call void @usb_bus_release(ptr noundef nonnull %bus) #11
  br label %if.end9

if.end9:                                          ; preds = %if.then8, %uhci_async_cancel_all.exit
  ret void
}